; Function Attrs: mustprogress uwtable
define void @_ZNK4LIEF3DEX5Class11pretty_nameB5cxx11Ev(ptr dead_on_unwind noalias writable sret(%"class.std::__cxx11::basic_string") align 8 %0, ptr noundef nonnull align 8 dereferenceable(140) %1) local_unnamed_addr #0 align 2 personality ptr @__gxx_personality_v0 {
  %3 = getelementptr inbounds i8, ptr %1, i64 8
  %4 = tail call noundef i64 @_ZNKSt7__cxx1112basic_stringIcSt11char_traitsIcESaIcEE4sizeEv(ptr noundef nonnull align 8 dereferenceable(32) %3) #17
  %5 = icmp ult i64 %4, 3
  br i1 %5, label %6, label %7

6:                                                ; preds = %2
  tail call void @_ZNSt7__cxx1112basic_stringIcSt11char_traitsIcESaIcEEC1ERKS4_(ptr noundef nonnull align 8 dereferenceable(32) %0, ptr noundef nonnull align 8 dereferenceable(32) %3)
  br label %_ZSt7replaceIN9__gnu_cxx17__normal_iteratorIPcNSt7__cxx1112basic_stringIcSt11char_traitsIcESaIcEEEEEcEvT_SA_RKT0_SD_.exit

7:                                                ; preds = %2
  %8 = tail call noundef i64 @_ZNKSt7__cxx1112basic_stringIcSt11char_traitsIcESaIcEE4sizeEv(ptr noundef nonnull align 8 dereferenceable(32) %3) #17
  %9 = add i64 %8, -2
  tail call void @_ZNKSt7__cxx1112basic_stringIcSt11char_traitsIcESaIcEE6substrEmm(ptr dead_on_unwind writable sret(%"class.std::__cxx11::basic_string") align 8 %0, ptr noundef nonnull align 8 dereferenceable(32) %3, i64 noundef 1, i64 noundef %9)
  %10 = tail call ptr @_ZNSt7__cxx1112basic_stringIcSt11char_traitsIcESaIcEE5beginEv(ptr noundef nonnull align 8 dereferenceable(32) %0) #17
  %11 = tail call ptr @_ZNSt7__cxx1112basic_stringIcSt11char_traitsIcESaIcEE3endEv(ptr noundef nonnull align 8 dereferenceable(32) %0) #17
  %.not6.i = icmp eq ptr %10, %11
  br i1 %.not6.i, label %_ZSt7replaceIN9__gnu_cxx17__normal_iteratorIPcNSt7__cxx1112basic_stringIcSt11char_traitsIcESaIcEEEEEcEvT_SA_RKT0_SD_.exit, label %.lr.ph.i

.lr.ph.i:                                         ; preds = %7, %15
  %.sroa.02.07.i = phi ptr [ %16, %15 ], [ %10, %7 ]
  %12 = load i8, ptr %.sroa.02.07.i, align 1
  %13 = icmp eq i8 %12, 47
  br i1 %13, label %14, label %15

14:                                               ; preds = %.lr.ph.i
  store i8 46, ptr %.sroa.02.07.i, align 1
  br label %15

15:                                               ; preds = %14, %.lr.ph.i
  %16 = getelementptr inbounds i8, ptr %.sroa.02.07.i, i64 1
  %.not.i = icmp eq ptr %16, %11
  br i1 %.not.i, label %_ZSt7replaceIN9__gnu_cxx17__normal_iteratorIPcNSt7__cxx1112basic_stringIcSt11char_traitsIcESaIcEEEEEcEvT_SA_RKT0_SD_.exit, label %.lr.ph.i, !llvm.loop !4

_ZSt7replaceIN9__gnu_cxx17__normal_iteratorIPcNSt7__cxx1112basic_stringIcSt11char_traitsIcESaIcEEEEEcEvT_SA_RKT0_SD_.exit: ; preds = %15, %7, %6
  ret void
}